target datalayout = "e-m:e-p270:32:32-p271:32:32-p272:64:64-i64:64-i128:128-f80:128-n8:16:32:64-S128"
target triple = "x86_64-pc-linux-gnu"

%struct.evp_md_ctx_st = type { ptr, ptr, ptr, i64, ptr, ptr, ptr, ptr, ptr }
%struct.evp_md_st = type { i32, i32, i32, i64, i32, ptr, ptr, ptr, ptr, ptr, i32, i32, ptr, i32, ptr, ptr, ptr, %struct.CRYPTO_REF_COUNT, ptr, ptr, ptr, ptr, ptr, ptr, ptr, ptr, ptr, ptr, ptr, ptr, ptr, ptr, ptr }
%struct.CRYPTO_REF_COUNT = type { i32 }

@.str = private unnamed_addr constant [31 x i8] c"../openssl/crypto/evp/digest.c\00", align 1

; Function Attrs: nounwind uwtable
define internal void @cleanup_old_md_data(ptr noundef %0, i32 noundef %1) #0 {
  %3 = alloca ptr, align 8
  %4 = alloca i32, align 4
  store ptr %0, ptr %3, align 8, !tbaa !3
  store i32 %1, ptr %4, align 4, !tbaa !8
  %5 = load ptr, ptr %3, align 8, !tbaa !3
  %6 = getelementptr inbounds nuw %struct.evp_md_ctx_st, ptr %5, i32 0, i32 1
  %7 = load ptr, ptr %6, align 8, !tbaa !16
  %8 = icmp ne ptr %7, null
  br i1 %8, label %9, label %60

9:                                                ; preds = %2
  %10 = load ptr, ptr %3, align 8, !tbaa !3
  %11 = getelementptr inbounds nuw %struct.evp_md_ctx_st, ptr %10, i32 0, i32 1
  %12 = load ptr, ptr %11, align 8, !tbaa !16
  %13 = getelementptr inbounds nuw %struct.evp_md_st, ptr %12, i32 0, i32 9
  %14 = load ptr, ptr %13, align 8, !tbaa !25
  %15 = icmp ne ptr %14, null
  br i1 %15, label %16, label %28

16:                                               ; preds = %9
  %17 = load ptr, ptr %3, align 8, !tbaa !3
  %18 = call i32 @EVP_MD_CTX_test_flags(ptr noundef %17, i32 noundef 2)
  %19 = icmp ne i32 %18, 0
  br i1 %19, label %28, label %20

20:                                               ; preds = %16
  %21 = load ptr, ptr %3, align 8, !tbaa !3
  %22 = getelementptr inbounds nuw %struct.evp_md_ctx_st, ptr %21, i32 0, i32 1
  %23 = load ptr, ptr %22, align 8, !tbaa !16
  %24 = getelementptr inbounds nuw %struct.evp_md_st, ptr %23, i32 0, i32 9
  %25 = load ptr, ptr %24, align 8, !tbaa !25
  %26 = load ptr, ptr %3, align 8, !tbaa !3
  %27 = call i32 %25(ptr noundef %26)
  br label %28

28:                                               ; preds = %20, %16, %9
  %29 = load ptr, ptr %3, align 8, !tbaa !3
  %30 = getelementptr inbounds nuw %struct.evp_md_ctx_st, ptr %29, i32 0, i32 4
  %31 = load ptr, ptr %30, align 8, !tbaa !26
  %32 = icmp ne ptr %31, null
  br i1 %32, label %33, label %59

33:                                               ; preds = %28
  %34 = load ptr, ptr %3, align 8, !tbaa !3
  %35 = getelementptr inbounds nuw %struct.evp_md_ctx_st, ptr %34, i32 0, i32 1
  %36 = load ptr, ptr %35, align 8, !tbaa !16
  %37 = getelementptr inbounds nuw %struct.evp_md_st, ptr %36, i32 0, i32 11
  %38 = load i32, ptr %37, align 4, !tbaa !27
  %39 = icmp sgt i32 %38, 0
  br i1 %39, label %40, label %59

40:                                               ; preds = %33
  %41 = load ptr, ptr %3, align 8, !tbaa !3
  %42 = call i32 @EVP_MD_CTX_test_flags(ptr noundef %41, i32 noundef 4)
  %43 = icmp ne i32 %42, 0
  br i1 %43, label %44, label %47

44:                                               ; preds = %40
  %45 = load i32, ptr %4, align 4, !tbaa !8
  %46 = icmp ne i32 %45, 0
  br i1 %46, label %47, label %59

47:                                               ; preds = %44, %40
  %48 = load ptr, ptr %3, align 8, !tbaa !3
  %49 = getelementptr inbounds nuw %struct.evp_md_ctx_st, ptr %48, i32 0, i32 4
  %50 = load ptr, ptr %49, align 8, !tbaa !26
  %51 = load ptr, ptr %3, align 8, !tbaa !3
  %52 = getelementptr inbounds nuw %struct.evp_md_ctx_st, ptr %51, i32 0, i32 1
  %53 = load ptr, ptr %52, align 8, !tbaa !16
  %54 = getelementptr inbounds nuw %struct.evp_md_st, ptr %53, i32 0, i32 11
  %55 = load i32, ptr %54, align 4, !tbaa !27
  %56 = sext i32 %55 to i64
  call void @CRYPTO_clear_free(ptr noundef %50, i64 noundef %56, ptr noundef @.str, i32 noundef 38)
  %57 = load ptr, ptr %3, align 8, !tbaa !3
  %58 = getelementptr inbounds nuw %struct.evp_md_ctx_st, ptr %57, i32 0, i32 4
  store ptr null, ptr %58, align 8, !tbaa !26
  br label %59

59:                                               ; preds = %47, %44, %33, %28
  br label %60

60:                                               ; preds = %59, %2
  ret void
}