; Function Attrs: nounwind uwtable
define internal fastcc void @cleanup_old_md_data(ptr noundef %0, i32 noundef %1) unnamed_addr #0 {
  %3 = getelementptr inbounds nuw i8, ptr %0, i64 8
  %4 = load ptr, ptr %3, align 8, !tbaa !12
  %.not = icmp eq ptr %4, null
  br i1 %.not, label %33, label %5

5:                                                ; preds = %2
  %6 = getelementptr inbounds nuw i8, ptr %4, i64 64
  %7 = load ptr, ptr %6, align 8, !tbaa !19
  %.not12 = icmp eq ptr %7, null
  br i1 %.not12, label %15, label %8

8:                                                ; preds = %5
  %9 = tail call i32 @EVP_MD_CTX_test_flags(ptr noundef nonnull %0, i32 noundef 2) #8
  %.not13 = icmp eq i32 %9, 0
  br i1 %.not13, label %10, label %15

10:                                               ; preds = %8
  %11 = load ptr, ptr %3, align 8, !tbaa !12
  %12 = getelementptr inbounds nuw i8, ptr %11, i64 64
  %13 = load ptr, ptr %12, align 8, !tbaa !19
  %14 = tail call i32 %13(ptr noundef nonnull %0) #8
  br label %15

15:                                               ; preds = %10, %8, %5
  %16 = getelementptr inbounds nuw i8, ptr %0, i64 32
  %17 = load ptr, ptr %16, align 8, !tbaa !20
  %.not14 = icmp eq ptr %17, null
  br i1 %.not14, label %33, label %18

18:                                               ; preds = %15
  %19 = load ptr, ptr %3, align 8, !tbaa !12
  %20 = getelementptr inbounds nuw i8, ptr %19, i64 76
  %21 = load i32, ptr %20, align 4, !tbaa !21
  %22 = icmp sgt i32 %21, 0
  br i1 %22, label %23, label %33

23:                                               ; preds = %18
  %24 = tail call i32 @EVP_MD_CTX_test_flags(ptr noundef nonnull %0, i32 noundef 4) #8
  %25 = icmp eq i32 %24, 0
  %26 = icmp ne i32 %1, 0
  %or.cond = or i1 %26, %25
  br i1 %or.cond, label %27, label %33

27:                                               ; preds = %23
  %28 = load ptr, ptr %16, align 8, !tbaa !20
  %29 = load ptr, ptr %3, align 8, !tbaa !12
  %30 = getelementptr inbounds nuw i8, ptr %29, i64 76
  %31 = load i32, ptr %30, align 4, !tbaa !21
  %32 = sext i32 %31 to i64
  tail call void @CRYPTO_clear_free(ptr noundef %28, i64 noundef %32, ptr noundef nonnull @.str, i32 noundef 38) #8
  store ptr null, ptr %16, align 8, !tbaa !20
  br label %33

33:                                               ; preds = %15, %18, %27, %23, %2
  ret void
}